target datalayout = "e-m:e-p270:32:32-p271:32:32-p272:64:64-i64:64-i128:128-f80:128-n8:16:32:64-S128"
target triple = "x86_64-pc-linux-gnu"

%class.ErrorHandler = type <{ i32, i32, i8, i8, i8, i8, i8, i8, [2 x i8] }>
%class.Array = type { ptr, i64, i64, i64 }

@.str.4 = private unnamed_addr constant [4 x i8] c"RAR\00", align 1
@ErrHandler = external global %class.ErrorHandler, align 4

; Function Attrs: mustprogress uwtable
define linkonce_odr void @_ZN5ArrayIwE3AddEm(ptr noundef nonnull align 8 dereferenceable(32) %0, i64 noundef %1) #0 comdat align 2 {
  %3 = alloca ptr, align 8
  %4 = alloca i64, align 8
  %5 = alloca i64, align 8
  %6 = alloca i64, align 8
  %7 = alloca ptr, align 8
  store ptr %0, ptr %3, align 8
  store i64 %1, ptr %4, align 8
  %8 = load ptr, ptr %3, align 8
  %9 = load i64, ptr %4, align 8
  %10 = getelementptr inbounds %class.Array, ptr %8, i32 0, i32 1
  %11 = load i64, ptr %10, align 8
  %12 = add i64 %11, %9
  store i64 %12, ptr %10, align 8
  %13 = getelementptr inbounds %class.Array, ptr %8, i32 0, i32 1
  %14 = load i64, ptr %13, align 8
  %15 = getelementptr inbounds %class.Array, ptr %8, i32 0, i32 2
  %16 = load i64, ptr %15, align 8
  %17 = icmp ugt i64 %14, %16
  br i1 %17, label %18, label %63

18:                                               ; preds = %2
  %19 = getelementptr inbounds %class.Array, ptr %8, i32 0, i32 3
  %20 = load i64, ptr %19, align 8
  %21 = icmp ne i64 %20, 0
  br i1 %21, label %22, label %31

22:                                               ; preds = %18
  %23 = getelementptr inbounds %class.Array, ptr %8, i32 0, i32 1
  %24 = load i64, ptr %23, align 8
  %25 = getelementptr inbounds %class.Array, ptr %8, i32 0, i32 3
  %26 = load i64, ptr %25, align 8
  %27 = icmp ugt i64 %24, %26
  br i1 %27, label %28, label %31

28:                                               ; preds = %22
  %29 = getelementptr inbounds %class.Array, ptr %8, i32 0, i32 3
  %30 = load i64, ptr %29, align 8
  call void (ptr, ptr, ...) @_ZN12ErrorHandler13GeneralErrMsgEPKwz(ptr noundef nonnull align 4 dereferenceable(14) @ErrHandler, ptr noundef @.str.34, i64 noundef %30)
  call void @_ZN12ErrorHandler11MemoryErrorEv(ptr noundef nonnull align 4 dereferenceable(14) @ErrHandler)
  br label %31

31:                                               ; preds = %28, %22, %18
  %32 = getelementptr inbounds %class.Array, ptr %8, i32 0, i32 2
  %33 = load i64, ptr %32, align 8
  %34 = getelementptr inbounds %class.Array, ptr %8, i32 0, i32 2
  %35 = load i64, ptr %34, align 8
  %36 = udiv i64 %35, 4
  %37 = add i64 %33, %36
  %38 = add i64 %37, 32
  store i64 %38, ptr %5, align 8
  %39 = getelementptr inbounds %class.Array, ptr %8, i32 0, i32 1
  %40 = load i64, ptr %39, align 8
  %41 = load i64, ptr %5, align 8
  %42 = icmp ugt i64 %40, %41
  br i1 %42, label %43, label %46

43:                                               ; preds = %31
  %44 = getelementptr inbounds %class.Array, ptr %8, i32 0, i32 1
  %45 = load i64, ptr %44, align 8
  br label %48

46:                                               ; preds = %31
  %47 = load i64, ptr %5, align 8
  br label %48

48:                                               ; preds = %46, %43
  %49 = phi i64 [ %45, %43 ], [ %47, %46 ]
  store i64 %49, ptr %6, align 8
  %50 = getelementptr inbounds %class.Array, ptr %8, i32 0, i32 0
  %51 = load ptr, ptr %50, align 8
  %52 = load i64, ptr %6, align 8
  %53 = mul i64 %52, 4
  %54 = call ptr @realloc(ptr noundef %51, i64 noundef %53) #15
  store ptr %54, ptr %7, align 8
  %55 = load ptr, ptr %7, align 8
  %56 = icmp eq ptr %55, null
  br i1 %56, label %57, label %58

57:                                               ; preds = %48
  call void @_ZN12ErrorHandler11MemoryErrorEv(ptr noundef nonnull align 4 dereferenceable(14) @ErrHandler)
  br label %58

58:                                               ; preds = %57, %48
  %59 = load ptr, ptr %7, align 8
  %60 = getelementptr inbounds %class.Array, ptr %8, i32 0, i32 0
  store ptr %59, ptr %60, align 8
  %61 = load i64, ptr %6, align 8
  %62 = getelementptr inbounds %class.Array, ptr %8, i32 0, i32 2
  store i64 %61, ptr %62, align 8
  br label %63

63:                                               ; preds = %58, %2
  ret void
}

; Function Attrs: mustprogress nounwind uwtable
define linkonce_odr void @_ZN5ArrayIwE9CleanDataEv(ptr noundef nonnull align 8 dereferenceable(32) %0) #1 comdat align 2 {
  %2 = alloca ptr, align 8
  store ptr %0, ptr %2, align 8
  %3 = load ptr, ptr %2, align 8
  %4 = getelementptr inbounds %class.Array, ptr %3, i32 0, i32 0
  store ptr null, ptr %4, align 8
  %5 = getelementptr inbounds %class.Array, ptr %3, i32 0, i32 1
  store i64 0, ptr %5, align 8
  %6 = getelementptr inbounds %class.Array, ptr %3, i32 0, i32 2
  store i64 0, ptr %6, align 8
  %7 = getelementptr inbounds %class.Array, ptr %3, i32 0, i32 3
  store i64 0, ptr %7, align 8
  ret void
}

; Function Attrs: mustprogress nounwind uwtable
define linkonce_odr void @_ZN5ArrayIwED2Ev(ptr noundef nonnull align 8 dereferenceable(32) %0) unnamed_addr #1 comdat align 2 {
  %2 = alloca ptr, align 8
  store ptr %0, ptr %2, align 8
  %3 = load ptr, ptr %2, align 8
  %4 = getelementptr inbounds %class.Array, ptr %3, i32 0, i32 0
  %5 = load ptr, ptr %4, align 8
  %6 = icmp ne ptr %5, null
  br i1 %6, label %7, label %10

7:                                                ; preds = %1
  %8 = getelementptr inbounds %class.Array, ptr %3, i32 0, i32 0
  %9 = load ptr, ptr %8, align 8
  call void @free(ptr noundef %9) #11
  br label %10

10:                                               ; preds = %7, %1
  ret void
}

; Function Attrs: mustprogress nounwind uwtable
define linkonce_odr noundef i64 @_ZN5ArrayIwE4SizeEv(ptr noundef nonnull align 8 dereferenceable(32) %0) #1 comdat align 2 {
  %2 = alloca ptr, align 8
  store ptr %0, ptr %2, align 8
  %3 = load ptr, ptr %2, align 8
  %4 = getelementptr inbounds %class.Array, ptr %3, i32 0, i32 1
  %5 = load i64, ptr %4, align 8
  ret i64 %5
}

; Function Attrs: mustprogress nounwind uwtable
define linkonce_odr noundef nonnull align 4 dereferenceable(4) ptr @_ZNK5ArrayIwEixEm(ptr noundef nonnull align 8 dereferenceable(32) %0, i64 noundef %1) #1 comdat align 2 {
  %3 = alloca ptr, align 8
  %4 = alloca i64, align 8
  store ptr %0, ptr %3, align 8
  store i64 %1, ptr %4, align 8
  %5 = load ptr, ptr %3, align 8
  %6 = getelementptr inbounds %class.Array, ptr %5, i32 0, i32 0
  %7 = load ptr, ptr %6, align 8
  %8 = load i64, ptr %4, align 8
  %9 = getelementptr inbounds i32, ptr %7, i64 %8
  ret ptr %9
}

; Function Attrs: mustprogress uwtable
define linkonce_odr void @_ZN5ArrayIwEC2Em(ptr noundef nonnull align 8 dereferenceable(32) %0, i64 noundef %1) unnamed_addr #0 comdat align 2 {
  %3 = alloca ptr, align 8
  %4 = alloca i64, align 8
  store ptr %0, ptr %3, align 8
  store i64 %1, ptr %4, align 8
  %5 = load ptr, ptr %3, align 8
  call void @_ZN5ArrayIwE9CleanDataEv(ptr noundef nonnull align 8 dereferenceable(32) %5)
  %6 = load i64, ptr %4, align 8
  call void @_ZN5ArrayIwE3AddEm(ptr noundef nonnull align 8 dereferenceable(32) %5, i64 noundef %6)
  ret void
}

; Function Attrs: mustprogress uwtable
define void @_ZN11CommandData11ParseEnvVarEv(ptr noundef nonnull align 8 dereferenceable(100904) %0) #0 align 2 personality ptr @__gxx_personality_v0 {
  %2 = alloca ptr, align 8
  %3 = alloca ptr, align 8
  %4 = alloca %class.Array, align 8
  %5 = alloca ptr, align 8
  %6 = alloca i32, align 4
  store ptr %0, ptr %2, align 8
  %7 = load ptr, ptr %2, align 8
  %8 = call ptr @getenv(ptr noundef @.str.4) #11
  store ptr %8, ptr %3, align 8
  %9 = load ptr, ptr %3, align 8
  %10 = icmp ne ptr %9, null
  br i1 %10, label %11, label %29

11:                                               ; preds = %1
  %12 = load ptr, ptr %3, align 8
  %13 = call i64 @strlen(ptr noundef %12) #10
  %14 = add i64 %13, 1
  call void @_ZN5ArrayIwEC2Em(ptr noundef nonnull align 8 dereferenceable(32) %4, i64 noundef %14)
  %15 = load ptr, ptr %3, align 8
  %16 = invoke noundef nonnull align 4 dereferenceable(4) ptr @_ZNK5ArrayIwEixEm(ptr noundef nonnull align 8 dereferenceable(32) %4, i64 noundef 0)
          to label %17 unwind label %25

17:                                               ; preds = %11
  %18 = invoke noundef i64 @_ZN5ArrayIwE4SizeEv(ptr noundef nonnull align 8 dereferenceable(32) %4)
          to label %19 unwind label %25

19:                                               ; preds = %17
  %20 = invoke noundef zeroext i1 @_Z10CharToWidePKcPwm(ptr noundef %15, ptr noundef %16, i64 noundef %18)
          to label %21 unwind label %25

21:                                               ; preds = %19
  %22 = invoke noundef nonnull align 4 dereferenceable(4) ptr @_ZNK5ArrayIwEixEm(ptr noundef nonnull align 8 dereferenceable(32) %4, i64 noundef 0)
          to label %23 unwind label %25

23:                                               ; preds = %21
  invoke void @_ZN11CommandData21ProcessSwitchesStringEPKw(ptr noundef nonnull align 8 dereferenceable(100904) %7, ptr noundef %22)
          to label %24 unwind label %25

24:                                               ; preds = %23
  call void @_ZN5ArrayIwED2Ev(ptr noundef nonnull align 8 dereferenceable(32) %4) #11
  br label %29

25:                                               ; preds = %23, %21, %19, %17, %11
  %26 = landingpad { ptr, i32 }
          cleanup
  %27 = extractvalue { ptr, i32 } %26, 0
  store ptr %27, ptr %5, align 8
  %28 = extractvalue { ptr, i32 } %26, 1
  store i32 %28, ptr %6, align 4
  call void @_ZN5ArrayIwED2Ev(ptr noundef nonnull align 8 dereferenceable(32) %4) #11
  br label %30

29:                                               ; preds = %24, %1
  ret void

30:                                               ; preds = %25
  %31 = load ptr, ptr %5, align 8
  %32 = load i32, ptr %6, align 4
  %33 = insertvalue { ptr, i32 } poison, ptr %31, 0
  %34 = insertvalue { ptr, i32 } %33, i32 %32, 1
  resume { ptr, i32 } %34
}