; Function Attrs: mustprogress uwtable
define void @_ZN11CommandData11ParseEnvVarEv(ptr noundef nonnull align 8 dereferenceable(100904) %0) local_unnamed_addr #0 align 2 personality ptr @__gxx_personality_v0 {
  %2 = tail call ptr @getenv(ptr noundef nonnull @.str.4) #18
  %.not = icmp eq ptr %2, null
  br i1 %.not, label %13, label %3

3:                                                ; preds = %1
  %4 = tail call i64 @strlen(ptr noundef nonnull dereferenceable(1) %2) #16
  %5 = add i64 %4, 1
  %.not.i = icmp eq i64 %5, 0
  br i1 %.not.i, label %_ZN5ArrayIwEC2Em.exit, label %6

6:                                                ; preds = %3
  %..i.i = tail call i64 @llvm.umax.i64(i64 %5, i64 32)
  %7 = shl i64 %..i.i, 2
  %malloc.i = tail call ptr @malloc(i64 %7)
  %8 = icmp eq ptr %malloc.i, null
  br i1 %8, label %9, label %_ZN5ArrayIwEC2Em.exit

9:                                                ; preds = %6
  tail call void @_ZN12ErrorHandler11MemoryErrorEv(ptr noundef nonnull align 4 dereferenceable(14) @ErrHandler)
  br label %_ZN5ArrayIwEC2Em.exit

_ZN5ArrayIwEC2Em.exit:                            ; preds = %6, %9, %3
  %.sroa.0.0 = phi ptr [ null, %3 ], [ null, %9 ], [ %malloc.i, %6 ]
  %10 = invoke noundef zeroext i1 @_Z10CharToWidePKcPwm(ptr noundef nonnull %2, ptr noundef nonnull %.sroa.0.0, i64 noundef %5)
          to label %11 unwind label %_ZN5ArrayIwED2Ev.exit7

11:                                               ; preds = %_ZN5ArrayIwEC2Em.exit
  invoke void @_ZN11CommandData21ProcessSwitchesStringEPKw(ptr noundef nonnull align 8 dereferenceable(100904) %0, ptr noundef nonnull %.sroa.0.0)
          to label %_ZN5ArrayIwED2Ev.exit unwind label %_ZN5ArrayIwED2Ev.exit7

_ZN5ArrayIwED2Ev.exit:                            ; preds = %11
  tail call void @free(ptr noundef nonnull %.sroa.0.0) #18
  br label %13

_ZN5ArrayIwED2Ev.exit7:                           ; preds = %11, %_ZN5ArrayIwEC2Em.exit
  %12 = landingpad { ptr, i32 }
          cleanup
  tail call void @free(ptr noundef nonnull %.sroa.0.0) #18
  resume { ptr, i32 } %12

13:                                               ; preds = %_ZN5ArrayIwED2Ev.exit, %1
  ret void
}